; Function Attrs: nofree norecurse nosync nounwind memory(argmem: readwrite) uwtable
define hidden void @od_ec_dec_init(ptr nocapture noundef nonnull writeonly %0, ptr noundef nonnull %1, i32 noundef %2) local_unnamed_addr #0 {
  store ptr %1, ptr %0, align 8
  %4 = getelementptr inbounds nuw i8, ptr %0, i64 8
  store i32 -14, ptr %4, align 8
  %5 = zext i32 %2 to i64
  %6 = getelementptr inbounds i8, ptr %1, i64 %5
  %7 = getelementptr inbounds nuw i8, ptr %0, i64 16
  store ptr %6, ptr %7, align 8
  %8 = getelementptr inbounds nuw i8, ptr %0, i64 24
  store ptr %1, ptr %8, align 8
  %9 = getelementptr inbounds nuw i8, ptr %0, i64 32
  store i32 2147483647, ptr %9, align 8
  %10 = getelementptr inbounds nuw i8, ptr %0, i64 36
  store i16 -32768, ptr %10, align 4
  %11 = getelementptr inbounds nuw i8, ptr %0, i64 38
  store i16 -15, ptr %11, align 2
  %.not = icmp eq i32 %2, 0
  br i1 %.not, label %._crit_edge.i.thread, label %.lr.ph.i

.lr.ph.i:                                         ; preds = %3, %.lr.ph.i
  %.029.i = phi i32 [ %17, %.lr.ph.i ], [ 23, %3 ]
  %.02328.i = phi ptr [ %18, %.lr.ph.i ], [ %1, %3 ]
  %.02427.i = phi i16 [ %16, %.lr.ph.i ], [ -15, %3 ]
  %.02526.i = phi i32 [ %15, %.lr.ph.i ], [ 2147483647, %3 ]
  %12 = load i8, ptr %.02328.i, align 1
  %13 = zext i8 %12 to i32
  %14 = shl i32 %13, %.029.i
  %15 = xor i32 %14, %.02526.i
  %16 = add nsw i16 %.02427.i, 8
  %17 = add nsw i32 %.029.i, -8
  %18 = getelementptr inbounds i8, ptr %.02328.i, i64 1
  %19 = icmp ugt i32 %.029.i, 7
  %20 = icmp ult ptr %18, %6
  %21 = select i1 %19, i1 %20, i1 false
  br i1 %21, label %.lr.ph.i, label %._crit_edge.i, !llvm.loop !4

._crit_edge.i:                                    ; preds = %.lr.ph.i
  br i1 %20, label %od_ec_dec_refill.exit, label %._crit_edge.i.thread

._crit_edge.i.thread:                             ; preds = %3, %._crit_edge.i
  %.023.lcssa.i18 = phi ptr [ %18, %._crit_edge.i ], [ %1, %3 ]
  %.024.lcssa.i17 = phi i16 [ %16, %._crit_edge.i ], [ -15, %3 ]
  %.025.lcssa.i15 = phi i32 [ %15, %._crit_edge.i ], [ 2147483647, %3 ]
  %22 = sext i16 %.024.lcssa.i17 to i32
  %23 = sub nsw i32 16370, %22
  store i32 %23, ptr %4, align 8
  br label %od_ec_dec_refill.exit

od_ec_dec_refill.exit:                            ; preds = %._crit_edge.i, %._crit_edge.i.thread
  %.023.lcssa.i19 = phi ptr [ %.023.lcssa.i18, %._crit_edge.i.thread ], [ %18, %._crit_edge.i ]
  %.025.lcssa.i16 = phi i32 [ %.025.lcssa.i15, %._crit_edge.i.thread ], [ %15, %._crit_edge.i ]
  %.1.i = phi i16 [ 16384, %._crit_edge.i.thread ], [ %16, %._crit_edge.i ]
  store i32 %.025.lcssa.i16, ptr %9, align 8
  store i16 %.1.i, ptr %11, align 2
  store ptr %.023.lcssa.i19, ptr %8, align 8
  ret void
}